target datalayout = "e-m:e-p270:32:32-p271:32:32-p272:64:64-i64:64-i128:128-f80:128-n8:16:32:64-S128"
target triple = "x86_64-unknown-linux-gnu"

@_ZN6icu_7520CompactDecimalFormatC1ERKNS_6LocaleE19UNumberCompactStyleR10UErrorCode = unnamed_addr alias void (ptr, ptr, i32, ptr), ptr @_ZN6icu_7520CompactDecimalFormatC2ERKNS_6LocaleE19UNumberCompactStyleR10UErrorCode

; Function Attrs: mustprogress uwtable
define noundef ptr @_ZN6icu_7520CompactDecimalFormat14createInstanceERKNS_6LocaleE19UNumberCompactStyleR10UErrorCode(ptr noundef nonnull align 8 dereferenceable(217) %inLocale, i32 noundef %style, ptr noundef nonnull align 4 dereferenceable(4) %status) #1 align 2 personality ptr @__gxx_personality_v0 {
entry:
  %inLocale.addr = alloca ptr, align 8
  %style.addr = alloca i32, align 4
  %status.addr = alloca ptr, align 8
  %cleanup.cond = alloca i1, align 1
  %exn.slot = alloca ptr, align 8
  %ehselector.slot = alloca i32, align 4
  store ptr %inLocale, ptr %inLocale.addr, align 8
  store i32 %style, ptr %style.addr, align 4
  store ptr %status, ptr %status.addr, align 8
  %call = call noundef ptr @_ZN6icu_757UMemorynwEm(i64 noundef 368) #7
  %new.isnull = icmp eq ptr %call, null
  store i1 false, ptr %cleanup.cond, align 1
  br i1 %new.isnull, label %new.cont, label %new.notnull

new.notnull:                                      ; preds = %entry
  store i1 true, ptr %cleanup.cond, align 1
  %0 = load ptr, ptr %inLocale.addr, align 8
  %1 = load i32, ptr %style.addr, align 4
  %2 = load ptr, ptr %status.addr, align 8
  invoke void @_ZN6icu_7520CompactDecimalFormatC1ERKNS_6LocaleE19UNumberCompactStyleR10UErrorCode(ptr noundef nonnull align 8 dereferenceable(368) %call, ptr noundef nonnull align 8 dereferenceable(217) %0, i32 noundef %1, ptr noundef nonnull align 4 dereferenceable(4) %2)
          to label %invoke.cont unwind label %lpad

invoke.cont:                                      ; preds = %new.notnull
  br label %new.cont

new.cont:                                         ; preds = %invoke.cont, %entry
  %3 = phi ptr [ %call, %invoke.cont ], [ null, %entry ]
  ret ptr %3

lpad:                                             ; preds = %new.notnull
  %4 = landingpad { ptr, i32 }
          cleanup
  %5 = extractvalue { ptr, i32 } %4, 0
  store ptr %5, ptr %exn.slot, align 8
  %6 = extractvalue { ptr, i32 } %4, 1
  store i32 %6, ptr %ehselector.slot, align 4
  %cleanup.is_active = load i1, ptr %cleanup.cond, align 1
  br i1 %cleanup.is_active, label %cleanup.action, label %cleanup.done

cleanup.action:                                   ; preds = %lpad
  call void @_ZN6icu_757UMemorydlEPv(ptr noundef %call) #7
  br label %cleanup.done

cleanup.done:                                     ; preds = %cleanup.action, %lpad
  br label %eh.resume

eh.resume:                                        ; preds = %cleanup.done
  %exn = load ptr, ptr %exn.slot, align 8
  %sel = load i32, ptr %ehselector.slot, align 4
  %lpad.val = insertvalue { ptr, i32 } poison, ptr %exn, 0
  %lpad.val1 = insertvalue { ptr, i32 } %lpad.val, i32 %sel, 1
  resume { ptr, i32 } %lpad.val1
}