; Function Attrs: mustprogress uwtable
define noundef ptr @_ZN6icu_7520CompactDecimalFormat14createInstanceERKNS_6LocaleE19UNumberCompactStyleR10UErrorCode(ptr noundef nonnull align 8 dereferenceable(217) %inLocale, i32 noundef %style, ptr noundef nonnull align 4 dereferenceable(4) %status) local_unnamed_addr #1 align 2 personality ptr @__gxx_personality_v0 {
entry:
  %call = tail call noundef ptr @_ZN6icu_757UMemorynwEm(i64 noundef 368) #10
  %new.isnull = icmp eq ptr %call, null
  br i1 %new.isnull, label %new.cont, label %new.notnull

new.notnull:                                      ; preds = %entry
  invoke void @_ZN6icu_7520CompactDecimalFormatC1ERKNS_6LocaleE19UNumberCompactStyleR10UErrorCode(ptr noundef nonnull align 8 dereferenceable(368) %call, ptr noundef nonnull align 8 dereferenceable(217) %inLocale, i32 noundef %style, ptr noundef nonnull align 4 dereferenceable(4) %status)
          to label %new.cont unwind label %lpad

new.cont:                                         ; preds = %new.notnull, %entry
  ret ptr %call

lpad:                                             ; preds = %new.notnull
  %0 = landingpad { ptr, i32 }
          cleanup
  tail call void @_ZN6icu_757UMemorydlEPv(ptr noundef nonnull %call) #10
  resume { ptr, i32 } %0
}